; Function Attrs: mustprogress uwtable
define hidden noundef ptr @_ZNK6google8protobuf12UnknownField37InternalSerializeLengthDelimitedNoTagEPhPNS0_2io19EpsCopyOutputStreamE(ptr noundef nonnull readonly align 8 captures(none) dereferenceable(16) %0, ptr noundef initializes((0, 1)) %1, ptr noundef %2) local_unnamed_addr #3 align 2 personality ptr @__gxx_personality_v0 {
  %4 = getelementptr inbounds nuw i8, ptr %0, i64 8
  %5 = load ptr, ptr %4, align 8, !tbaa !16
  %6 = getelementptr inbounds nuw i8, ptr %5, i64 8
  %7 = load i64, ptr %6, align 8, !tbaa !22
  %8 = trunc i64 %7 to i32
  %9 = trunc i64 %7 to i8
  store i8 %9, ptr %1, align 1, !tbaa !16
  %10 = icmp ult i32 %8, 128
  br i1 %10, label %11, label %13

11:                                               ; preds = %3
  %12 = getelementptr inbounds nuw i8, ptr %1, i64 1
  br label %_ZN6google8protobuf2io17CodedOutputStream20WriteVarint32ToArrayEjPh.exit

13:                                               ; preds = %3
  %14 = or i8 %9, -128
  store i8 %14, ptr %1, align 1, !tbaa !16
  %15 = lshr i32 %8, 7
  %16 = trunc i32 %15 to i8
  %17 = getelementptr inbounds nuw i8, ptr %1, i64 1
  store i8 %16, ptr %17, align 1, !tbaa !16
  %18 = icmp ult i32 %8, 16384
  %19 = getelementptr inbounds nuw i8, ptr %1, i64 2
  br i1 %18, label %_ZN6google8protobuf2io17CodedOutputStream20WriteVarint32ToArrayEjPh.exit, label %.preheader.preheader

.preheader.preheader:                             ; preds = %13
  %scevgep = getelementptr i8, ptr %1, i64 1
  %load_initial = load i8, ptr %scevgep, align 1
  br label %.preheader

.preheader:                                       ; preds = %.preheader.preheader, %.preheader
  %store_forwarded = phi i8 [ %load_initial, %.preheader.preheader ], [ %23, %.preheader ]
  %.018.i.i = phi i32 [ %15, %.preheader.preheader ], [ %22, %.preheader ]
  %.0.i.i = phi ptr [ %19, %.preheader.preheader ], [ %24, %.preheader ]
  %20 = getelementptr inbounds i8, ptr %.0.i.i, i64 -1
  %21 = or i8 %store_forwarded, -128
  store i8 %21, ptr %20, align 1, !tbaa !16
  %22 = lshr i32 %.018.i.i, 7
  %23 = trunc i32 %22 to i8
  store i8 %23, ptr %.0.i.i, align 1, !tbaa !16
  %24 = getelementptr inbounds nuw i8, ptr %.0.i.i, i64 1
  %25 = icmp samesign ugt i32 %.018.i.i, 16383
  br i1 %25, label %.preheader, label %_ZN6google8protobuf2io17CodedOutputStream20WriteVarint32ToArrayEjPh.exit, !llvm.loop !54

_ZN6google8protobuf2io17CodedOutputStream20WriteVarint32ToArrayEjPh.exit: ; preds = %.preheader, %11, %13
  %.019.i.i = phi ptr [ %12, %11 ], [ %19, %13 ], [ %24, %.preheader ]
  %26 = load ptr, ptr %5, align 8, !tbaa !17
  %27 = load i64, ptr %6, align 8, !tbaa !22
  %28 = load ptr, ptr %2, align 8, !tbaa !55
  %29 = ptrtoint ptr %28 to i64
  %30 = ptrtoint ptr %.019.i.i to i64
  %31 = sub i64 %29, %30
  %sext = shl i64 %27, 32
  %32 = ashr exact i64 %sext, 32
  %33 = icmp slt i64 %31, %32
  br i1 %33, label %34, label %37, !prof !35

34:                                               ; preds = %_ZN6google8protobuf2io17CodedOutputStream20WriteVarint32ToArrayEjPh.exit
  %35 = trunc i64 %27 to i32
  %36 = tail call noundef ptr @_ZN6google8protobuf2io19EpsCopyOutputStream16WriteRawFallbackEPKviPh(ptr noundef nonnull align 8 dereferenceable(59) %2, ptr noundef %26, i32 noundef %35, ptr noundef nonnull %.019.i.i)
  br label %_ZN6google8protobuf2io19EpsCopyOutputStream8WriteRawEPKviPh.exit

37:                                               ; preds = %_ZN6google8protobuf2io17CodedOutputStream20WriteVarint32ToArrayEjPh.exit
  tail call void @llvm.memcpy.p0.p0.i64(ptr nonnull align 1 %.019.i.i, ptr align 1 %26, i64 %32, i1 false)
  %38 = getelementptr inbounds i8, ptr %.019.i.i, i64 %32
  br label %_ZN6google8protobuf2io19EpsCopyOutputStream8WriteRawEPKviPh.exit

_ZN6google8protobuf2io19EpsCopyOutputStream8WriteRawEPKviPh.exit: ; preds = %34, %37
  %.0.i = phi ptr [ %36, %34 ], [ %38, %37 ]
  ret ptr %.0.i
}